target datalayout = "e-m:e-p270:32:32-p271:32:32-p272:64:64-i64:64-i128:128-f80:128-n8:16:32:64-S128"
target triple = "x86_64-pc-linux-gnu"

%struct.jpeg_decompress_struct = type { ptr, ptr, ptr, ptr, i32, i32, ptr, i32, i32, i32, i32, i32, i32, i32, double, i32, i32, i32, i32, i32, i32, i32, i32, i32, i32, i32, i32, i32, i32, i32, i32, i32, i32, ptr, i32, i32, i32, i32, i32, ptr, [4 x ptr], [4 x ptr], [4 x ptr], i32, ptr, i32, i32, [16 x i8], [16 x i8], [16 x i8], i32, i32, i8, i8, i8, i16, i16, i32, i8, i32, ptr, i32, i32, i32, i32, ptr, i32, [4 x ptr], i32, i32, i32, [10 x i32], i32, i32, i32, i32, i32, ptr, ptr, ptr, ptr, ptr, ptr, ptr, ptr, ptr, ptr, ptr }

; Function Attrs: nounwind uwtable
define internal void @gray_rgb565_convert(ptr noundef %0, ptr noundef %1, i32 noundef %2, ptr noundef %3, i32 noundef %4) #0 {
  %6 = alloca ptr, align 8
  %7 = alloca ptr, align 8
  %8 = alloca i32, align 4
  %9 = alloca ptr, align 8
  %10 = alloca i32, align 4
  %11 = alloca ptr, align 8
  %12 = alloca ptr, align 8
  %13 = alloca i32, align 4
  %14 = alloca i32, align 4
  %15 = alloca i64, align 8
  %16 = alloca i32, align 4
  %17 = alloca ptr, align 8
  %18 = alloca ptr, align 8
  %19 = alloca i32, align 4
  %20 = alloca ptr, align 8
  %21 = alloca i32, align 4
  %22 = alloca ptr, align 8
  %23 = alloca ptr, align 8
  %24 = alloca i32, align 4
  %25 = alloca i32, align 4
  %26 = alloca i64, align 8
  %27 = alloca i32, align 4
  %28 = alloca i32, align 4
  %29 = alloca i32, align 4
  %30 = alloca ptr, align 8
  %31 = alloca ptr, align 8
  %32 = alloca i32, align 4
  %33 = alloca ptr, align 8
  %34 = alloca i32, align 4
  store ptr %0, ptr %30, align 8
  store ptr %1, ptr %31, align 8
  store i32 %2, ptr %32, align 4
  store ptr %3, ptr %33, align 8
  store i32 %4, ptr %34, align 4
  store i32 1, ptr %29, align 4
  %35 = load i8, ptr %29, align 4
  %36 = sext i8 %35 to i32
  %37 = icmp ne i32 %36, 1
  br i1 %37, label %38, label %39

38:                                               ; preds = %5
  store i32 1, ptr %28, align 4
  br label %40

39:                                               ; preds = %5
  store i32 0, ptr %28, align 4
  br label %40

40:                                               ; preds = %39, %38
  %41 = load i32, ptr %28, align 4
  %42 = icmp ne i32 %41, 0
  br i1 %42, label %43, label %177

43:                                               ; preds = %40
  %44 = load ptr, ptr %30, align 8
  %45 = load ptr, ptr %31, align 8
  %46 = load i32, ptr %32, align 4
  %47 = load ptr, ptr %33, align 8
  %48 = load i32, ptr %34, align 4
  store ptr %44, ptr %17, align 8
  store ptr %45, ptr %18, align 8
  store i32 %46, ptr %19, align 4
  store ptr %47, ptr %20, align 8
  store i32 %48, ptr %21, align 4
  %49 = load ptr, ptr %17, align 8
  %50 = getelementptr inbounds %struct.jpeg_decompress_struct, ptr %49, i32 0, i32 27
  %51 = load i32, ptr %50, align 8
  store i32 %51, ptr %25, align 4
  br label %52

52:                                               ; preds = %175, %43
  %53 = load i32, ptr %21, align 4
  %54 = add nsw i32 %53, -1
  store i32 %54, ptr %21, align 4
  %55 = icmp sge i32 %54, 0
  br i1 %55, label %56, label %176

56:                                               ; preds = %52
  %57 = load ptr, ptr %18, align 8
  %58 = load ptr, ptr %57, align 8
  %59 = load i32, ptr %19, align 4
  %60 = add i32 %59, 1
  store i32 %60, ptr %19, align 4
  %61 = zext i32 %59 to i64
  %62 = getelementptr inbounds ptr, ptr %58, i64 %61
  %63 = load ptr, ptr %62, align 8
  store ptr %63, ptr %22, align 8
  %64 = load ptr, ptr %20, align 8
  %65 = getelementptr inbounds ptr, ptr %64, i32 1
  store ptr %65, ptr %20, align 8
  %66 = load ptr, ptr %64, align 8
  store ptr %66, ptr %23, align 8
  %67 = load ptr, ptr %23, align 8
  %68 = ptrtoint ptr %67 to i64
  %69 = and i64 %68, 3
  %70 = icmp ne i64 %69, 0
  br i1 %70, label %71, label %97

71:                                               ; preds = %56
  %72 = load ptr, ptr %22, align 8
  %73 = getelementptr inbounds i8, ptr %72, i32 1
  store ptr %73, ptr %22, align 8
  %74 = load i8, ptr %72, align 1
  %75 = zext i8 %74 to i32
  store i32 %75, ptr %27, align 4
  %76 = load i32, ptr %27, align 4
  %77 = and i32 %76, 248
  %78 = load i32, ptr %27, align 4
  %79 = lshr i32 %78, 5
  %80 = or i32 %77, %79
  %81 = load i32, ptr %27, align 4
  %82 = shl i32 %81, 11
  %83 = and i32 %82, 57344
  %84 = or i32 %80, %83
  %85 = load i32, ptr %27, align 4
  %86 = shl i32 %85, 5
  %87 = and i32 %86, 7936
  %88 = or i32 %84, %87
  %89 = zext i32 %88 to i64
  store i64 %89, ptr %26, align 8
  %90 = load i64, ptr %26, align 8
  %91 = trunc i64 %90 to i16
  %92 = load ptr, ptr %23, align 8
  store i16 %91, ptr %92, align 2
  %93 = load ptr, ptr %23, align 8
  %94 = getelementptr inbounds i8, ptr %93, i64 2
  store ptr %94, ptr %23, align 8
  %95 = load i32, ptr %25, align 4
  %96 = add i32 %95, -1
  store i32 %96, ptr %25, align 4
  br label %97

97:                                               ; preds = %71, %56
  store i32 0, ptr %24, align 4
  br label %98

98:                                               ; preds = %103, %97
  %99 = load i32, ptr %24, align 4
  %100 = load i32, ptr %25, align 4
  %101 = lshr i32 %100, 1
  %102 = icmp ult i32 %99, %101
  br i1 %102, label %103, label %150

103:                                              ; preds = %98
  %104 = load ptr, ptr %22, align 8
  %105 = getelementptr inbounds i8, ptr %104, i32 1
  store ptr %105, ptr %22, align 8
  %106 = load i8, ptr %104, align 1
  %107 = zext i8 %106 to i32
  store i32 %107, ptr %27, align 4
  %108 = load i32, ptr %27, align 4
  %109 = and i32 %108, 248
  %110 = load i32, ptr %27, align 4
  %111 = lshr i32 %110, 5
  %112 = or i32 %109, %111
  %113 = load i32, ptr %27, align 4
  %114 = shl i32 %113, 11
  %115 = and i32 %114, 57344
  %116 = or i32 %112, %115
  %117 = load i32, ptr %27, align 4
  %118 = shl i32 %117, 5
  %119 = and i32 %118, 7936
  %120 = or i32 %116, %119
  %121 = zext i32 %120 to i64
  store i64 %121, ptr %26, align 8
  %122 = load ptr, ptr %22, align 8
  %123 = getelementptr inbounds i8, ptr %122, i32 1
  store ptr %123, ptr %22, align 8
  %124 = load i8, ptr %122, align 1
  %125 = zext i8 %124 to i32
  store i32 %125, ptr %27, align 4
  %126 = load i64, ptr %26, align 8
  %127 = shl i64 %126, 16
  %128 = load i32, ptr %27, align 4
  %129 = and i32 %128, 248
  %130 = load i32, ptr %27, align 4
  %131 = lshr i32 %130, 5
  %132 = or i32 %129, %131
  %133 = load i32, ptr %27, align 4
  %134 = shl i32 %133, 11
  %135 = and i32 %134, 57344
  %136 = or i32 %132, %135
  %137 = load i32, ptr %27, align 4
  %138 = shl i32 %137, 5
  %139 = and i32 %138, 7936
  %140 = or i32 %136, %139
  %141 = zext i32 %140 to i64
  %142 = or i64 %127, %141
  store i64 %142, ptr %26, align 8
  %143 = load i64, ptr %26, align 8
  %144 = trunc i64 %143 to i32
  %145 = load ptr, ptr %23, align 8
  store i32 %144, ptr %145, align 4
  %146 = load ptr, ptr %23, align 8
  %147 = getelementptr inbounds i8, ptr %146, i64 4
  store ptr %147, ptr %23, align 8
  %148 = load i32, ptr %24, align 4
  %149 = add i32 %148, 1
  store i32 %149, ptr %24, align 4
  br label %98, !llvm.loop !63

150:                                              ; preds = %98
  %151 = load i32, ptr %25, align 4
  %152 = and i32 %151, 1
  %153 = icmp ne i32 %152, 0
  br i1 %153, label %154, label %175

154:                                              ; preds = %150
  %155 = load ptr, ptr %22, align 8
  %156 = load i8, ptr %155, align 1
  %157 = zext i8 %156 to i32
  store i32 %157, ptr %27, align 4
  %158 = load i32, ptr %27, align 4
  %159 = and i32 %158, 248
  %160 = load i32, ptr %27, align 4
  %161 = lshr i32 %160, 5
  %162 = or i32 %159, %161
  %163 = load i32, ptr %27, align 4
  %164 = shl i32 %163, 11
  %165 = and i32 %164, 57344
  %166 = or i32 %162, %165
  %167 = load i32, ptr %27, align 4
  %168 = shl i32 %167, 5
  %169 = and i32 %168, 7936
  %170 = or i32 %166, %169
  %171 = zext i32 %170 to i64
  store i64 %171, ptr %26, align 8
  %172 = load i64, ptr %26, align 8
  %173 = trunc i64 %172 to i16
  %174 = load ptr, ptr %23, align 8
  store i16 %173, ptr %174, align 2
  br label %175

175:                                              ; preds = %154, %150
  br label %52, !llvm.loop !64

176:                                              ; preds = %52
  br label %299

177:                                              ; preds = %40
  %178 = load ptr, ptr %30, align 8
  %179 = load ptr, ptr %31, align 8
  %180 = load i32, ptr %32, align 4
  %181 = load ptr, ptr %33, align 8
  %182 = load i32, ptr %34, align 4
  store ptr %178, ptr %6, align 8
  store ptr %179, ptr %7, align 8
  store i32 %180, ptr %8, align 4
  store ptr %181, ptr %9, align 8
  store i32 %182, ptr %10, align 4
  %183 = load ptr, ptr %6, align 8
  %184 = getelementptr inbounds %struct.jpeg_decompress_struct, ptr %183, i32 0, i32 27
  %185 = load i32, ptr %184, align 8
  store i32 %185, ptr %14, align 4
  br label %186

186:                                              ; preds = %297, %177
  %187 = load i32, ptr %10, align 4
  %188 = add nsw i32 %187, -1
  store i32 %188, ptr %10, align 4
  %189 = icmp sge i32 %188, 0
  br i1 %189, label %190, label %298

190:                                              ; preds = %186
  %191 = load ptr, ptr %7, align 8
  %192 = load ptr, ptr %191, align 8
  %193 = load i32, ptr %8, align 4
  %194 = add i32 %193, 1
  store i32 %194, ptr %8, align 4
  %195 = zext i32 %193 to i64
  %196 = getelementptr inbounds ptr, ptr %192, i64 %195
  %197 = load ptr, ptr %196, align 8
  store ptr %197, ptr %11, align 8
  %198 = load ptr, ptr %9, align 8
  %199 = getelementptr inbounds ptr, ptr %198, i32 1
  store ptr %199, ptr %9, align 8
  %200 = load ptr, ptr %198, align 8
  store ptr %200, ptr %12, align 8
  %201 = load ptr, ptr %12, align 8
  %202 = ptrtoint ptr %201 to i64
  %203 = and i64 %202, 3
  %204 = icmp ne i64 %203, 0
  br i1 %204, label %205, label %228

205:                                              ; preds = %190
  %206 = load ptr, ptr %11, align 8
  %207 = getelementptr inbounds i8, ptr %206, i32 1
  store ptr %207, ptr %11, align 8
  %208 = load i8, ptr %206, align 1
  %209 = zext i8 %208 to i32
  store i32 %209, ptr %16, align 4
  %210 = load i32, ptr %16, align 4
  %211 = shl i32 %210, 8
  %212 = and i32 %211, 63488
  %213 = load i32, ptr %16, align 4
  %214 = shl i32 %213, 3
  %215 = and i32 %214, 2016
  %216 = or i32 %212, %215
  %217 = load i32, ptr %16, align 4
  %218 = lshr i32 %217, 3
  %219 = or i32 %216, %218
  %220 = zext i32 %219 to i64
  store i64 %220, ptr %15, align 8
  %221 = load i64, ptr %15, align 8
  %222 = trunc i64 %221 to i16
  %223 = load ptr, ptr %12, align 8
  store i16 %222, ptr %223, align 2
  %224 = load ptr, ptr %12, align 8
  %225 = getelementptr inbounds i8, ptr %224, i64 2
  store ptr %225, ptr %12, align 8
  %226 = load i32, ptr %14, align 4
  %227 = add i32 %226, -1
  store i32 %227, ptr %14, align 4
  br label %228

228:                                              ; preds = %205, %190
  store i32 0, ptr %13, align 4
  br label %229

229:                                              ; preds = %234, %228
  %230 = load i32, ptr %13, align 4
  %231 = load i32, ptr %14, align 4
  %232 = lshr i32 %231, 1
  %233 = icmp ult i32 %230, %232
  br i1 %233, label %234, label %275

234:                                              ; preds = %229
  %235 = load ptr, ptr %11, align 8
  %236 = getelementptr inbounds i8, ptr %235, i32 1
  store ptr %236, ptr %11, align 8
  %237 = load i8, ptr %235, align 1
  %238 = zext i8 %237 to i32
  store i32 %238, ptr %16, align 4
  %239 = load i32, ptr %16, align 4
  %240 = shl i32 %239, 8
  %241 = and i32 %240, 63488
  %242 = load i32, ptr %16, align 4
  %243 = shl i32 %242, 3
  %244 = and i32 %243, 2016
  %245 = or i32 %241, %244
  %246 = load i32, ptr %16, align 4
  %247 = lshr i32 %246, 3
  %248 = or i32 %245, %247
  %249 = zext i32 %248 to i64
  store i64 %249, ptr %15, align 8
  %250 = load ptr, ptr %11, align 8
  %251 = getelementptr inbounds i8, ptr %250, i32 1
  store ptr %251, ptr %11, align 8
  %252 = load i8, ptr %250, align 1
  %253 = zext i8 %252 to i32
  store i32 %253, ptr %16, align 4
  %254 = load i32, ptr %16, align 4
  %255 = shl i32 %254, 8
  %256 = and i32 %255, 63488
  %257 = load i32, ptr %16, align 4
  %258 = shl i32 %257, 3
  %259 = and i32 %258, 2016
  %260 = or i32 %256, %259
  %261 = load i32, ptr %16, align 4
  %262 = lshr i32 %261, 3
  %263 = or i32 %260, %262
  %264 = shl i32 %263, 16
  %265 = zext i32 %264 to i64
  %266 = load i64, ptr %15, align 8
  %267 = or i64 %265, %266
  store i64 %267, ptr %15, align 8
  %268 = load i64, ptr %15, align 8
  %269 = trunc i64 %268 to i32
  %270 = load ptr, ptr %12, align 8
  store i32 %269, ptr %270, align 4
  %271 = load ptr, ptr %12, align 8
  %272 = getelementptr inbounds i8, ptr %271, i64 4
  store ptr %272, ptr %12, align 8
  %273 = load i32, ptr %13, align 4
  %274 = add i32 %273, 1
  store i32 %274, ptr %13, align 4
  br label %229, !llvm.loop !65

275:                                              ; preds = %229
  %276 = load i32, ptr %14, align 4
  %277 = and i32 %276, 1
  %278 = icmp ne i32 %277, 0
  br i1 %278, label %279, label %297

279:                                              ; preds = %275
  %280 = load ptr, ptr %11, align 8
  %281 = load i8, ptr %280, align 1
  %282 = zext i8 %281 to i32
  store i32 %282, ptr %16, align 4
  %283 = load i32, ptr %16, align 4
  %284 = shl i32 %283, 8
  %285 = and i32 %284, 63488
  %286 = load i32, ptr %16, align 4
  %287 = shl i32 %286, 3
  %288 = and i32 %287, 2016
  %289 = or i32 %285, %288
  %290 = load i32, ptr %16, align 4
  %291 = lshr i32 %290, 3
  %292 = or i32 %289, %291
  %293 = zext i32 %292 to i64
  store i64 %293, ptr %15, align 8
  %294 = load i64, ptr %15, align 8
  %295 = trunc i64 %294 to i16
  %296 = load ptr, ptr %12, align 8
  store i16 %295, ptr %296, align 2
  br label %297

297:                                              ; preds = %279, %275
  br label %186, !llvm.loop !66

298:                                              ; preds = %186
  br label %299

299:                                              ; preds = %298, %176
  ret void
}