; Function Attrs: nofree norecurse nosync nounwind memory(readwrite, inaccessiblemem: none) uwtable
define internal void @gray_rgb565_convert(ptr nocapture noundef readonly %0, ptr nocapture noundef readonly %1, i32 noundef %2, ptr nocapture noundef readonly %3, i32 noundef %4) #2 {
  %6 = icmp sgt i32 %4, 0
  br i1 %6, label %.lr.ph116.preheader, label %._crit_edge117

.lr.ph116.preheader:                              ; preds = %5
  %7 = getelementptr inbounds i8, ptr %0, i64 136
  %8 = load i32, ptr %7, align 8
  br label %.lr.ph116

.lr.ph116:                                        ; preds = %.lr.ph116.preheader, %69
  %.in = phi i32 [ %9, %69 ], [ %4, %.lr.ph116.preheader ]
  %.0114 = phi i32 [ %11, %69 ], [ %2, %.lr.ph116.preheader ]
  %.086113 = phi ptr [ %15, %69 ], [ %3, %.lr.ph116.preheader ]
  %.092112 = phi i32 [ %.193, %69 ], [ %8, %.lr.ph116.preheader ]
  %9 = add nsw i32 %.in, -1
  %10 = load ptr, ptr %1, align 8
  %11 = add i32 %.0114, 1
  %12 = zext i32 %.0114 to i64
  %13 = getelementptr inbounds ptr, ptr %10, i64 %12
  %14 = load ptr, ptr %13, align 8
  %15 = getelementptr inbounds i8, ptr %.086113, i64 8
  %16 = load ptr, ptr %.086113, align 8
  %17 = ptrtoint ptr %16 to i64
  %18 = and i64 %17, 3
  %.not = icmp eq i64 %18, 0
  br i1 %.not, label %32, label %19

19:                                               ; preds = %.lr.ph116
  %20 = getelementptr inbounds i8, ptr %14, i64 1
  %21 = load i8, ptr %14, align 1
  %22 = zext i8 %21 to i16
  %23 = shl nuw i16 %22, 8
  %24 = and i16 %23, -2048
  %25 = shl nuw nsw i16 %22, 3
  %26 = and i16 %25, 2016
  %27 = lshr i16 %22, 3
  %28 = or disjoint i16 %26, %27
  %29 = or disjoint i16 %28, %24
  store i16 %29, ptr %16, align 2
  %30 = getelementptr inbounds i8, ptr %16, i64 2
  %31 = add i32 %.092112, -1
  br label %32

32:                                               ; preds = %19, %.lr.ph116
  %.193 = phi i32 [ %31, %19 ], [ %.092112, %.lr.ph116 ]
  %.089 = phi ptr [ %30, %19 ], [ %16, %.lr.ph116 ]
  %.088 = phi ptr [ %20, %19 ], [ %14, %.lr.ph116 ]
  %33 = lshr i32 %.193, 1
  %.not118 = icmp ult i32 %.193, 2
  br i1 %.not118, label %._crit_edge, label %.lr.ph

.lr.ph:                                           ; preds = %32, %.lr.ph
  %.1110 = phi ptr [ %42, %.lr.ph ], [ %.088, %32 ]
  %.190109 = phi ptr [ %56, %.lr.ph ], [ %.089, %32 ]
  %.091108 = phi i32 [ %57, %.lr.ph ], [ 0, %32 ]
  %34 = getelementptr inbounds i8, ptr %.1110, i64 1
  %35 = load i8, ptr %.1110, align 1
  %36 = zext i8 %35 to i32
  %37 = shl nuw nsw i32 %36, 8
  %38 = and i32 %37, 63488
  %39 = shl nuw nsw i32 %36, 3
  %40 = and i32 %39, 2016
  %41 = lshr i32 %36, 3
  %42 = getelementptr inbounds i8, ptr %.1110, i64 2
  %43 = load i8, ptr %34, align 1
  %44 = zext i8 %43 to i32
  %45 = shl nuw nsw i32 %44, 8
  %46 = and i32 %45, 63488
  %47 = shl nuw nsw i32 %44, 3
  %48 = and i32 %47, 2016
  %49 = or disjoint i32 %46, %48
  %50 = lshr i32 %44, 3
  %51 = or disjoint i32 %49, %50
  %52 = shl nuw i32 %51, 16
  %53 = or disjoint i32 %40, %41
  %54 = or disjoint i32 %53, %38
  %55 = or disjoint i32 %54, %52
  store i32 %55, ptr %.190109, align 4
  %56 = getelementptr inbounds i8, ptr %.190109, i64 4
  %57 = add nuw nsw i32 %.091108, 1
  %exitcond.not = icmp eq i32 %57, %33
  br i1 %exitcond.not, label %._crit_edge, label %.lr.ph, !llvm.loop !61

._crit_edge:                                      ; preds = %.lr.ph, %32
  %.190.lcssa = phi ptr [ %.089, %32 ], [ %56, %.lr.ph ]
  %.1.lcssa = phi ptr [ %.088, %32 ], [ %42, %.lr.ph ]
  %58 = and i32 %.193, 1
  %.not107 = icmp eq i32 %58, 0
  br i1 %.not107, label %69, label %59

59:                                               ; preds = %._crit_edge
  %60 = load i8, ptr %.1.lcssa, align 1
  %61 = zext i8 %60 to i16
  %62 = shl nuw i16 %61, 8
  %63 = and i16 %62, -2048
  %64 = shl nuw nsw i16 %61, 3
  %65 = and i16 %64, 2016
  %66 = lshr i16 %61, 3
  %67 = or disjoint i16 %65, %66
  %68 = or disjoint i16 %67, %63
  store i16 %68, ptr %.190.lcssa, align 2
  br label %69

69:                                               ; preds = %59, %._crit_edge
  %70 = icmp sgt i32 %.in, 1
  br i1 %70, label %.lr.ph116, label %._crit_edge117, !llvm.loop !62

._crit_edge117:                                   ; preds = %69, %5
  ret void
}